; Function Attrs: mustprogress nounwind uwtable
define dso_local void @_ZNSt3__113shared_futureIvED2Ev(ptr noundef nonnull readonly align 8 captures(none) dereferenceable(8) %0) unnamed_addr #8 align 2 {
  %2 = load ptr, ptr %0, align 8, !tbaa !44
  %.not = icmp eq ptr %2, null
  br i1 %.not, label %_ZNSt3__114__shared_count16__release_sharedB8ne210000Ev.exit, label %3

3:                                                ; preds = %1
  %4 = getelementptr inbounds nuw i8, ptr %2, i64 8
  %5 = atomicrmw add ptr %4, i64 -1 acq_rel, align 8
  %6 = icmp eq i64 %5, 0
  br i1 %6, label %7, label %_ZNSt3__114__shared_count16__release_sharedB8ne210000Ev.exit

7:                                                ; preds = %3
  %8 = load ptr, ptr %2, align 8, !tbaa !8
  %9 = getelementptr inbounds nuw i8, ptr %8, i64 16
  %10 = load ptr, ptr %9, align 8
  tail call void %10(ptr noundef nonnull align 8 dereferenceable(16) %2) #21
  br label %_ZNSt3__114__shared_count16__release_sharedB8ne210000Ev.exit

_ZNSt3__114__shared_count16__release_sharedB8ne210000Ev.exit: ; preds = %7, %3, %1
  ret void
}